target datalayout = "e-m:e-p270:32:32-p271:32:32-p272:64:64-i64:64-i128:128-f80:128-n8:16:32:64-S128"
target triple = "x86_64-pc-linux-gnu"

@hf_dsmcc_un_sess_uu_data_len = internal global i32 0, align 4
@hf_dsmcc_un_sess_uu_data = internal global i32 0, align 4
@hf_dsmcc_un_sess_priv_data_len = internal global i32 0, align 4
@hf_dsmcc_un_sess_priv_data = internal global i32 0, align 4

; Function Attrs: null_pointer_is_valid sspstrong uwtable
define internal i32 @dissect_dsmcc_un_session_user_data(ptr noundef %0, i32 noundef %1, ptr noundef %2, ptr noundef %3) #0 {
  %5 = alloca ptr, align 8
  %6 = alloca i32, align 4
  %7 = alloca ptr, align 8
  %8 = alloca ptr, align 8
  %9 = alloca i32, align 4
  %10 = alloca i16, align 2
  %11 = alloca i16, align 2
  store ptr %0, ptr %5, align 8
  store i32 %1, ptr %6, align 4
  store ptr %2, ptr %7, align 8
  store ptr %3, ptr %8, align 8
  call void @llvm.lifetime.start.p0(i64 4, ptr %9) #4
  call void @llvm.lifetime.start.p0(i64 2, ptr %10) #4
  call void @llvm.lifetime.start.p0(i64 2, ptr %11) #4
  %12 = load i32, ptr %6, align 4
  store i32 %12, ptr %9, align 4
  %13 = load ptr, ptr %5, align 8
  %14 = load i32, ptr %6, align 4
  %15 = call zeroext i16 @tvb_get_ntohs(ptr noundef %13, i32 noundef %14)
  store i16 %15, ptr %10, align 2
  %16 = load ptr, ptr %8, align 8
  %17 = load i32, ptr @hf_dsmcc_un_sess_uu_data_len, align 4
  %18 = load ptr, ptr %5, align 8
  %19 = load i32, ptr %6, align 4
  %20 = call ptr @proto_tree_add_item(ptr noundef %16, i32 noundef %17, ptr noundef %18, i32 noundef %19, i32 noundef 2, i32 noundef 0)
  %21 = load i32, ptr %6, align 4
  %22 = add i32 %21, 2
  store i32 %22, ptr %6, align 4
  %23 = load i16, ptr %10, align 2
  %24 = zext i16 %23 to i32
  %25 = icmp sgt i32 %24, 0
  br i1 %25, label %26, label %38

26:                                               ; preds = %4
  %27 = load ptr, ptr %8, align 8
  %28 = load i32, ptr @hf_dsmcc_un_sess_uu_data, align 4
  %29 = load ptr, ptr %5, align 8
  %30 = load i32, ptr %6, align 4
  %31 = load i16, ptr %10, align 2
  %32 = zext i16 %31 to i32
  %33 = call ptr @proto_tree_add_item(ptr noundef %27, i32 noundef %28, ptr noundef %29, i32 noundef %30, i32 noundef %32, i32 noundef 0)
  %34 = load i16, ptr %10, align 2
  %35 = zext i16 %34 to i32
  %36 = load i32, ptr %6, align 4
  %37 = add i32 %36, %35
  store i32 %37, ptr %6, align 4
  br label %38

38:                                               ; preds = %26, %4
  %39 = load ptr, ptr %5, align 8
  %40 = load i32, ptr %6, align 4
  %41 = call zeroext i16 @tvb_get_ntohs(ptr noundef %39, i32 noundef %40)
  store i16 %41, ptr %11, align 2
  %42 = load ptr, ptr %8, align 8
  %43 = load i32, ptr @hf_dsmcc_un_sess_priv_data_len, align 4
  %44 = load ptr, ptr %5, align 8
  %45 = load i32, ptr %6, align 4
  %46 = call ptr @proto_tree_add_item(ptr noundef %42, i32 noundef %43, ptr noundef %44, i32 noundef %45, i32 noundef 2, i32 noundef 0)
  %47 = load i32, ptr %6, align 4
  %48 = add i32 %47, 2
  store i32 %48, ptr %6, align 4
  %49 = load i16, ptr %11, align 2
  %50 = zext i16 %49 to i32
  %51 = icmp sgt i32 %50, 0
  br i1 %51, label %52, label %64

52:                                               ; preds = %38
  %53 = load ptr, ptr %8, align 8
  %54 = load i32, ptr @hf_dsmcc_un_sess_priv_data, align 4
  %55 = load ptr, ptr %5, align 8
  %56 = load i32, ptr %6, align 4
  %57 = load i16, ptr %11, align 2
  %58 = zext i16 %57 to i32
  %59 = call ptr @proto_tree_add_item(ptr noundef %53, i32 noundef %54, ptr noundef %55, i32 noundef %56, i32 noundef %58, i32 noundef 0)
  %60 = load i16, ptr %11, align 2
  %61 = zext i16 %60 to i32
  %62 = load i32, ptr %6, align 4
  %63 = add i32 %62, %61
  store i32 %63, ptr %6, align 4
  br label %64

64:                                               ; preds = %52, %38
  %65 = load i32, ptr %6, align 4
  %66 = load i32, ptr %9, align 4
  %67 = sub i32 %65, %66
  call void @llvm.lifetime.end.p0(i64 2, ptr %11) #4
  call void @llvm.lifetime.end.p0(i64 2, ptr %10) #4
  call void @llvm.lifetime.end.p0(i64 4, ptr %9) #4
  ret i32 %67
}