; Function Attrs: null_pointer_is_valid sspstrong uwtable
define internal fastcc noundef i32 @dissect_dsmcc_un_session_user_data(ptr noundef %0, i32 noundef %1, ptr noundef %2) unnamed_addr #0 {
  %4 = tail call zeroext i16 @tvb_get_ntohs(ptr noundef %0, i32 noundef %1)
  %5 = load i32, ptr @hf_dsmcc_un_sess_uu_data_len, align 4
  %6 = tail call ptr @proto_tree_add_item(ptr noundef %2, i32 noundef %5, ptr noundef %0, i32 noundef %1, i32 noundef 2, i32 noundef 0)
  %7 = add i32 %1, 2
  %.not = icmp eq i16 %4, 0
  br i1 %.not, label %13, label %8

8:                                                ; preds = %3
  %9 = zext i16 %4 to i32
  %10 = load i32, ptr @hf_dsmcc_un_sess_uu_data, align 4
  %11 = tail call ptr @proto_tree_add_item(ptr noundef %2, i32 noundef %10, ptr noundef %0, i32 noundef %7, i32 noundef %9, i32 noundef 0)
  %12 = add i32 %7, %9
  br label %13

13:                                               ; preds = %8, %3
  %.0 = phi i32 [ %12, %8 ], [ %7, %3 ]
  %14 = tail call zeroext i16 @tvb_get_ntohs(ptr noundef %0, i32 noundef %.0)
  %15 = load i32, ptr @hf_dsmcc_un_sess_priv_data_len, align 4
  %16 = tail call ptr @proto_tree_add_item(ptr noundef %2, i32 noundef %15, ptr noundef %0, i32 noundef %.0, i32 noundef 2, i32 noundef 0)
  %17 = add i32 %.0, 2
  %.not30 = icmp eq i16 %14, 0
  br i1 %.not30, label %23, label %18

18:                                               ; preds = %13
  %19 = zext i16 %14 to i32
  %20 = load i32, ptr @hf_dsmcc_un_sess_priv_data, align 4
  %21 = tail call ptr @proto_tree_add_item(ptr noundef %2, i32 noundef %20, ptr noundef %0, i32 noundef %17, i32 noundef %19, i32 noundef 0)
  %22 = add i32 %17, %19
  br label %23

23:                                               ; preds = %18, %13
  %.1 = phi i32 [ %22, %18 ], [ %17, %13 ]
  %24 = sub i32 %.1, %1
  ret i32 %24
}